; Function Attrs: mustprogress uwtable
define void @_ZN3gmx26FirstOrderPressureCoupling12elementSetupEv(ptr noundef nonnull align 8 dereferenceable(240) %0) unnamed_addr #0 align 2 {
  %2 = getelementptr inbounds nuw i8, ptr %0, i64 184
  %3 = load ptr, ptr %2, align 8, !tbaa !47
  %4 = getelementptr inbounds nuw i8, ptr %3, i64 204
  %5 = getelementptr inbounds nuw i8, ptr %3, i64 676
  %6 = tail call noundef zeroext i1 @_Z22shouldPreserveBoxShapeRK23PressureCouplingOptionsPA3_Kf(ptr noundef nonnull align 4 dereferenceable(92) %4, ptr noundef nonnull %5)
  br i1 %6, label %7, label %18

7:                                                ; preds = %1
  %8 = getelementptr inbounds nuw i8, ptr %0, i64 160
  %9 = load ptr, ptr %8, align 8, !tbaa !48
  %10 = tail call noundef ptr @_ZN3gmx19StatePropagatorData3boxEv(ptr noundef nonnull align 8 dereferenceable(632) %9)
  %11 = load ptr, ptr %2, align 8, !tbaa !47
  %12 = getelementptr inbounds nuw i8, ptr %11, i64 208
  %13 = load i32, ptr %12, align 4, !tbaa !49
  %14 = icmp eq i32 %13, 1
  %15 = select i1 %14, i32 2, i32 3
  %16 = getelementptr inbounds nuw i8, ptr %11, i64 676
  %17 = getelementptr inbounds nuw i8, ptr %0, i64 88
  tail call void @_Z10do_box_reliPA3_KfPA3_fS3_b(i32 noundef %15, ptr noundef nonnull %16, ptr noundef nonnull %17, ptr noundef %10, i1 noundef zeroext true)
  br label %18

18:                                               ; preds = %7, %1
  ret void
}